target datalayout = "e-m:e-p270:32:32-p271:32:32-p272:64:64-i64:64-i128:128-f80:128-n8:16:32:64-S128"
target triple = "x86_64-pc-linux-gnu"

@.str.1 = private unnamed_addr constant [7 x i8] c"copies\00", align 1
@.str.2 = private unnamed_addr constant [5 x i8] c"copy\00", align 1

; Function Attrs: nounwind uwtable
define dso_local i32 @git_config_rename(ptr noundef %0, ptr noundef %1) #0 {
  %3 = alloca i32, align 4
  %4 = alloca ptr, align 8
  %5 = alloca ptr, align 8
  store ptr %0, ptr %4, align 8, !tbaa !9
  store ptr %1, ptr %5, align 8, !tbaa !9
  %6 = load ptr, ptr %5, align 8, !tbaa !9
  %7 = icmp ne ptr %6, null
  br i1 %7, label %9, label %8

8:                                                ; preds = %2
  store i32 1, ptr %3, align 4
  br label %24

9:                                                ; preds = %2
  %10 = load ptr, ptr %5, align 8, !tbaa !9
  %11 = call i32 @strcasecmp(ptr noundef %10, ptr noundef @.str.1) #11
  %12 = icmp ne i32 %11, 0
  br i1 %12, label %13, label %17

13:                                               ; preds = %9
  %14 = load ptr, ptr %5, align 8, !tbaa !9
  %15 = call i32 @strcasecmp(ptr noundef %14, ptr noundef @.str.2) #11
  %16 = icmp ne i32 %15, 0
  br i1 %16, label %18, label %17

17:                                               ; preds = %13, %9
  store i32 2, ptr %3, align 4
  br label %24

18:                                               ; preds = %13
  %19 = load ptr, ptr %4, align 8, !tbaa !9
  %20 = load ptr, ptr %5, align 8, !tbaa !9
  %21 = call i32 @git_config_bool(ptr noundef %19, ptr noundef %20)
  %22 = icmp ne i32 %21, 0
  %23 = select i1 %22, i32 1, i32 0
  store i32 %23, ptr %3, align 4
  br label %24

24:                                               ; preds = %18, %17, %8
  %25 = load i32, ptr %3, align 4
  ret i32 %25
}