; Function Attrs: nounwind uwtable
define dso_local range(i32 0, 3) i32 @git_config_rename(ptr noundef %0, ptr noundef %1) local_unnamed_addr #0 {
  %.not = icmp eq ptr %1, null
  br i1 %.not, label %10, label %3

3:                                                ; preds = %2
  %4 = tail call i32 @strcasecmp(ptr noundef nonnull %1, ptr noundef nonnull @.str.1) #33
  %.not6 = icmp eq i32 %4, 0
  br i1 %.not6, label %10, label %5

5:                                                ; preds = %3
  %6 = tail call i32 @strcasecmp(ptr noundef nonnull %1, ptr noundef nonnull @.str.2) #33
  %.not7 = icmp eq i32 %6, 0
  br i1 %.not7, label %10, label %7

7:                                                ; preds = %5
  %8 = tail call i32 @git_config_bool(ptr noundef %0, ptr noundef nonnull %1) #32
  %.not8 = icmp ne i32 %8, 0
  %9 = zext i1 %.not8 to i32
  br label %10

10:                                               ; preds = %3, %5, %2, %7
  %.0 = phi i32 [ %9, %7 ], [ 1, %2 ], [ 2, %5 ], [ 2, %3 ]
  ret i32 %.0
}